target datalayout = "e-m:e-p270:32:32-p271:32:32-p272:64:64-i64:64-i128:128-f80:128-n8:16:32:64-S128"
target triple = "x86_64-pc-linux-gnu"

%struct.Vec_Int_t_ = type { i32, i32, ptr }

@.str.18 = private unnamed_addr constant [2 x i8] c"{\00", align 1
@.str.19 = private unnamed_addr constant [4 x i8] c" %d\00", align 1
@.str.20 = private unnamed_addr constant [4 x i8] c" }\0A\00", align 1
@.str.21 = private unnamed_addr constant [30 x i8] c"Cuts of node %d (size = %d):\0A\00", align 1

; Function Attrs: nounwind uwtable
define void @Gia_StoCutPrint(ptr noundef %0) #0 {
  %2 = alloca ptr, align 8
  %3 = alloca i32, align 4
  store ptr %0, ptr %2, align 8, !tbaa !56
  call void @llvm.lifetime.start.p0(i64 4, ptr %3) #12
  %4 = call i32 (ptr, ...) @printf(ptr noundef @.str.18)
  store i32 1, ptr %3, align 4, !tbaa !8
  br label %5

5:                                                ; preds = %18, %1
  %6 = load i32, ptr %3, align 4, !tbaa !8
  %7 = load ptr, ptr %2, align 8, !tbaa !56
  %8 = getelementptr inbounds i32, ptr %7, i64 0
  %9 = load i32, ptr %8, align 4, !tbaa !8
  %10 = icmp sle i32 %6, %9
  br i1 %10, label %11, label %21

11:                                               ; preds = %5
  %12 = load ptr, ptr %2, align 8, !tbaa !56
  %13 = load i32, ptr %3, align 4, !tbaa !8
  %14 = sext i32 %13 to i64
  %15 = getelementptr inbounds i32, ptr %12, i64 %14
  %16 = load i32, ptr %15, align 4, !tbaa !8
  %17 = call i32 (ptr, ...) @printf(ptr noundef @.str.19, i32 noundef %16)
  br label %18

18:                                               ; preds = %11
  %19 = load i32, ptr %3, align 4, !tbaa !8
  %20 = add nsw i32 %19, 1
  store i32 %20, ptr %3, align 4, !tbaa !8
  br label %5, !llvm.loop !115

21:                                               ; preds = %5
  %22 = call i32 (ptr, ...) @printf(ptr noundef @.str.20)
  call void @llvm.lifetime.end.p0(i64 4, ptr %3) #12
  ret void
}

; Function Attrs: inlinehint nounwind uwtable
define internal ptr @Vec_IntArray(ptr noundef %0) #2 {
  %2 = alloca ptr, align 8
  store ptr %0, ptr %2, align 8, !tbaa !55
  %3 = load ptr, ptr %2, align 8, !tbaa !55
  %4 = getelementptr inbounds nuw %struct.Vec_Int_t_, ptr %3, i32 0, i32 2
  %5 = load ptr, ptr %4, align 8, !tbaa !80
  ret ptr %5
}

; Function Attrs: nounwind uwtable
define void @Gia_StoPrintCuts(ptr noundef %0, i32 noundef %1, i32 noundef %2) #0 {
  %4 = alloca ptr, align 8
  %5 = alloca i32, align 4
  %6 = alloca i32, align 4
  %7 = alloca i32, align 4
  %8 = alloca ptr, align 8
  store ptr %0, ptr %4, align 8, !tbaa !55
  store i32 %1, ptr %5, align 4, !tbaa !8
  store i32 %2, ptr %6, align 4, !tbaa !8
  call void @llvm.lifetime.start.p0(i64 4, ptr %7) #12
  call void @llvm.lifetime.start.p0(i64 8, ptr %8) #12
  %9 = load i32, ptr %5, align 4, !tbaa !8
  %10 = load i32, ptr %6, align 4, !tbaa !8
  %11 = call i32 (ptr, ...) @printf(ptr noundef @.str.21, i32 noundef %9, i32 noundef %10)
  store i32 0, ptr %7, align 4, !tbaa !8
  %12 = load ptr, ptr %4, align 8, !tbaa !55
  %13 = call ptr @Vec_IntArray(ptr noundef %12)
  %14 = getelementptr inbounds i32, ptr %13, i64 1
  store ptr %14, ptr %8, align 8, !tbaa !56
  br label %15

15:                                               ; preds = %34, %3
  %16 = load i32, ptr %7, align 4, !tbaa !8
  %17 = load ptr, ptr %4, align 8, !tbaa !55
  %18 = call ptr @Vec_IntArray(ptr noundef %17)
  %19 = getelementptr inbounds i32, ptr %18, i64 0
  %20 = load i32, ptr %19, align 4, !tbaa !8
  %21 = icmp slt i32 %16, %20
  br i1 %21, label %22, label %44

22:                                               ; preds = %15
  %23 = load i32, ptr %6, align 4, !tbaa !8
  %24 = icmp ne i32 %23, 0
  br i1 %24, label %25, label %31

25:                                               ; preds = %22
  %26 = load ptr, ptr %8, align 8, !tbaa !56
  %27 = getelementptr inbounds i32, ptr %26, i64 0
  %28 = load i32, ptr %27, align 4, !tbaa !8
  %29 = load i32, ptr %6, align 4, !tbaa !8
  %30 = icmp eq i32 %28, %29
  br i1 %30, label %31, label %33

31:                                               ; preds = %25, %22
  %32 = load ptr, ptr %8, align 8, !tbaa !56
  call void @Gia_StoCutPrint(ptr noundef %32)
  br label %33

33:                                               ; preds = %31, %25
  br label %34

34:                                               ; preds = %33
  %35 = load i32, ptr %7, align 4, !tbaa !8
  %36 = add nsw i32 %35, 1
  store i32 %36, ptr %7, align 4, !tbaa !8
  %37 = load ptr, ptr %8, align 8, !tbaa !56
  %38 = getelementptr inbounds i32, ptr %37, i64 0
  %39 = load i32, ptr %38, align 4, !tbaa !8
  %40 = add nsw i32 %39, 2
  %41 = load ptr, ptr %8, align 8, !tbaa !56
  %42 = sext i32 %40 to i64
  %43 = getelementptr inbounds i32, ptr %41, i64 %42
  store ptr %43, ptr %8, align 8, !tbaa !56
  br label %15, !llvm.loop !116

44:                                               ; preds = %15
  call void @llvm.lifetime.end.p0(i64 8, ptr %8) #12
  call void @llvm.lifetime.end.p0(i64 4, ptr %7) #12
  ret void
}