; Function Attrs: nofree nounwind uwtable
define void @Gia_StoPrintCuts(ptr noundef readonly captures(none) %0, i32 noundef %1, i32 noundef %2) local_unnamed_addr #8 {
  %4 = tail call i32 (ptr, ...) @printf(ptr noundef nonnull dereferenceable(1) @.str.21, i32 noundef %1, i32 noundef %2)
  %5 = getelementptr i8, ptr %0, i64 8
  %.val14 = load ptr, ptr %5, align 8, !tbaa !36
  %6 = load i32, ptr %.val14, align 4, !tbaa !37
  %7 = icmp sgt i32 %6, 0
  br i1 %7, label %.lr.ph, label %._crit_edge

.lr.ph:                                           ; preds = %3
  %8 = getelementptr inbounds nuw i8, ptr %.val14, i64 4
  %.not = icmp eq i32 %2, 0
  br i1 %.not, label %.lr.ph.split.us, label %.lr.ph.split

.lr.ph.split.us:                                  ; preds = %.lr.ph, %Gia_StoCutPrint.exit.us
  %.016.us = phi ptr [ %19, %Gia_StoCutPrint.exit.us ], [ %8, %.lr.ph ]
  %.01115.us = phi i32 [ %15, %Gia_StoCutPrint.exit.us ], [ 0, %.lr.ph ]
  %putchar.i.us = tail call i32 @putchar(i32 123)
  %9 = load i32, ptr %.016.us, align 4, !tbaa !37
  %.not4.i.us = icmp slt i32 %9, 1
  br i1 %.not4.i.us, label %Gia_StoCutPrint.exit.us, label %.lr.ph.i.us

.lr.ph.i.us:                                      ; preds = %.lr.ph.split.us, %.lr.ph.i.us
  %indvars.iv.i.us = phi i64 [ %indvars.iv.next.i.us, %.lr.ph.i.us ], [ 1, %.lr.ph.split.us ]
  %10 = getelementptr inbounds nuw i32, ptr %.016.us, i64 %indvars.iv.i.us
  %11 = load i32, ptr %10, align 4, !tbaa !37
  %12 = tail call i32 (ptr, ...) @printf(ptr noundef nonnull dereferenceable(1) @.str.19, i32 noundef %11)
  %indvars.iv.next.i.us = add nuw nsw i64 %indvars.iv.i.us, 1
  %13 = load i32, ptr %.016.us, align 4, !tbaa !37
  %14 = sext i32 %13 to i64
  %.not.not.i.us = icmp slt i64 %indvars.iv.i.us, %14
  br i1 %.not.not.i.us, label %.lr.ph.i.us, label %Gia_StoCutPrint.exit.us, !llvm.loop !132

Gia_StoCutPrint.exit.us:                          ; preds = %.lr.ph.i.us, %.lr.ph.split.us
  %puts.i.us = tail call i32 @puts(ptr nonnull dereferenceable(1) @str.2)
  %15 = add nuw nsw i32 %.01115.us, 1
  %16 = load i32, ptr %.016.us, align 4, !tbaa !37
  %17 = sext i32 %16 to i64
  %18 = getelementptr i32, ptr %.016.us, i64 %17
  %19 = getelementptr i8, ptr %18, i64 8
  %.val.us = load ptr, ptr %5, align 8, !tbaa !36
  %20 = load i32, ptr %.val.us, align 4, !tbaa !37
  %21 = icmp slt i32 %15, %20
  br i1 %21, label %.lr.ph.split.us, label %._crit_edge, !llvm.loop !133

.lr.ph.split:                                     ; preds = %.lr.ph, %32
  %22 = phi i32 [ %33, %32 ], [ %6, %.lr.ph ]
  %.016 = phi ptr [ %38, %32 ], [ %8, %.lr.ph ]
  %.01115 = phi i32 [ %35, %32 ], [ 0, %.lr.ph ]
  %23 = load i32, ptr %.016, align 4, !tbaa !37
  %24 = icmp eq i32 %23, %2
  br i1 %24, label %25, label %32

25:                                               ; preds = %.lr.ph.split
  %putchar.i = tail call i32 @putchar(i32 123)
  %26 = load i32, ptr %.016, align 4, !tbaa !37
  %.not4.i = icmp slt i32 %26, 1
  br i1 %.not4.i, label %Gia_StoCutPrint.exit, label %.lr.ph.i

.lr.ph.i:                                         ; preds = %25, %.lr.ph.i
  %indvars.iv.i = phi i64 [ %indvars.iv.next.i, %.lr.ph.i ], [ 1, %25 ]
  %27 = getelementptr inbounds nuw i32, ptr %.016, i64 %indvars.iv.i
  %28 = load i32, ptr %27, align 4, !tbaa !37
  %29 = tail call i32 (ptr, ...) @printf(ptr noundef nonnull dereferenceable(1) @.str.19, i32 noundef %28)
  %indvars.iv.next.i = add nuw nsw i64 %indvars.iv.i, 1
  %30 = load i32, ptr %.016, align 4, !tbaa !37
  %31 = sext i32 %30 to i64
  %.not.not.i = icmp slt i64 %indvars.iv.i, %31
  br i1 %.not.not.i, label %.lr.ph.i, label %Gia_StoCutPrint.exit, !llvm.loop !132

Gia_StoCutPrint.exit:                             ; preds = %.lr.ph.i, %25
  %puts.i = tail call i32 @puts(ptr nonnull dereferenceable(1) @str.2)
  %.pre = load i32, ptr %.016, align 4, !tbaa !37
  %.val.pre = load ptr, ptr %5, align 8, !tbaa !36
  %.pre21 = load i32, ptr %.val.pre, align 4, !tbaa !37
  br label %32

32:                                               ; preds = %.lr.ph.split, %Gia_StoCutPrint.exit
  %33 = phi i32 [ %22, %.lr.ph.split ], [ %.pre21, %Gia_StoCutPrint.exit ]
  %34 = phi i32 [ %23, %.lr.ph.split ], [ %.pre, %Gia_StoCutPrint.exit ]
  %35 = add nuw nsw i32 %.01115, 1
  %36 = sext i32 %34 to i64
  %37 = getelementptr i32, ptr %.016, i64 %36
  %38 = getelementptr i8, ptr %37, i64 8
  %39 = icmp slt i32 %35, %33
  br i1 %39, label %.lr.ph.split, label %._crit_edge, !llvm.loop !133

._crit_edge:                                      ; preds = %32, %Gia_StoCutPrint.exit.us, %3
  ret void
}